; Function Attrs: mustprogress uwtable
define hidden noundef ptr @_ZN3nla11nex_creator12simplify_sumEPNS_7nex_sumE(ptr noundef nonnull align 8 dereferenceable(176) %this, ptr noundef nonnull %e) local_unnamed_addr #3 align 2 personality ptr @__gxx_personality_v0 {
entry:
  %ref.tmp = alloca %class.rational, align 8
  tail call void @_ZN3nla11nex_creator24simplify_children_of_sumERNS_7nex_sumE(ptr noundef nonnull align 8 dereferenceable(176) %this, ptr noundef nonnull align 8 dereferenceable(16) %e)
  %vtable = load ptr, ptr %e, align 8
  %0 = load ptr, ptr %vtable, align 8
  %call = tail call noundef i32 %0(ptr noundef nonnull align 8 dereferenceable(16) %e)
  %cmp = icmp eq i32 %call, 1
  br i1 %cmp, label %if.then, label %if.else

if.then:                                          ; preds = %entry
  %m_children.i = getelementptr inbounds i8, ptr %e, i64 8
  %1 = load ptr, ptr %m_children.i, align 8
  %2 = load ptr, ptr %1, align 8
  br label %if.end10

if.else:                                          ; preds = %entry
  %vtable3 = load ptr, ptr %e, align 8
  %3 = load ptr, ptr %vtable3, align 8
  %call5 = tail call noundef i32 %3(ptr noundef nonnull align 8 dereferenceable(16) %e)
  %cmp6 = icmp eq i32 %call5, 0
  br i1 %cmp6, label %if.then7, label %if.end10

if.then7:                                         ; preds = %if.else
  %m_kind.i.i.i = getelementptr inbounds i8, ptr %ref.tmp, i64 4
  %m_ptr.i.i.i = getelementptr inbounds i8, ptr %ref.tmp, i64 8
  store ptr null, ptr %m_ptr.i.i.i, align 8
  %m_den.i.i = getelementptr inbounds i8, ptr %ref.tmp, i64 16
  store i32 1, ptr %m_den.i.i, align 8
  %m_kind.i1.i.i = getelementptr inbounds i8, ptr %ref.tmp, i64 20
  store i8 0, ptr %m_kind.i1.i.i, align 4
  %m_ptr.i4.i.i = getelementptr inbounds i8, ptr %ref.tmp, i64 24
  store ptr null, ptr %m_ptr.i4.i.i, align 8
  %4 = load ptr, ptr @_ZN8rational13g_mpq_managerE, align 8
  store i32 0, ptr %ref.tmp, align 8
  store i8 0, ptr %m_kind.i.i.i, align 4
  call void @_ZN11mpz_managerILb1EE3delEPS0_R3mpz(ptr noundef nonnull %4, ptr noundef nonnull align 8 dereferenceable(16) %m_den.i.i)
  store i32 1, ptr %m_den.i.i, align 8
  %call8 = invoke noundef ptr @_ZN3nla11nex_creator9mk_scalarERK8rational(ptr noundef nonnull align 8 dereferenceable(176) %this, ptr noundef nonnull align 8 dereferenceable(32) %ref.tmp)
          to label %invoke.cont unwind label %lpad

invoke.cont:                                      ; preds = %if.then7
  %5 = load ptr, ptr @_ZN8rational13g_mpq_managerE, align 8
  invoke void @_ZN11mpz_managerILb1EE3delEPS0_R3mpz(ptr noundef %5, ptr noundef nonnull align 8 dereferenceable(16) %ref.tmp)
          to label %.noexc.i unwind label %terminate.lpad.i

.noexc.i:                                         ; preds = %invoke.cont
  invoke void @_ZN11mpz_managerILb1EE3delEPS0_R3mpz(ptr noundef %5, ptr noundef nonnull align 8 dereferenceable(16) %m_den.i.i)
          to label %if.end10 unwind label %terminate.lpad.i

terminate.lpad.i:                                 ; preds = %.noexc.i, %invoke.cont
  %6 = landingpad { ptr, i32 }
          catch ptr null
  %7 = extractvalue { ptr, i32 } %6, 0
  call void @__clang_call_terminate(ptr %7) #20
  unreachable

lpad:                                             ; preds = %if.then7
  %8 = landingpad { ptr, i32 }
          cleanup
  call void @_ZN8rationalD2Ev(ptr noundef nonnull align 8 dereferenceable(32) %ref.tmp) #21
  resume { ptr, i32 } %8

if.end10:                                         ; preds = %.noexc.i, %if.else, %if.then
  %r.0 = phi ptr [ %2, %if.then ], [ %e, %if.else ], [ %call8, %.noexc.i ]
  ret ptr %r.0
}